(iensembling
Network
p0
(dp1
S'layers'
p2
(lp3
(iensembling
Layer
p4
(dp5
S'models'
p6
(lp7
sS'name'
p8
S'Models_layer'
p9
sS'links'
p10
(dp11
sS'estimators'
p12
(lp13
sba(iensembling
Layer
p14
(dp15
g6
(lp16
(iensembling
Vote
p17
(dp18
S'vote_type'
p19
S'rank'
p20
sS'weights'
p21
(lp22
sbag17
ag17
ag17
ag17
asg8
S'Hidden_layer1'
p23
sg10
(dp24
I0
(lp25
I0
aI1
aI2
aI3
asI1
(lp26
I4
aI5
aI6
aI7
asI2
(lp27
I8
aI9
aI10
aI11
asI3
(lp28
I12
aI13
aI14
aI15
asI4
(lp29
I16
aI17
aI18
aI19
assg12
(lp30
sba(iensembling
Layer
p31
(dp32
g6
(lp33
(iensembling
Vote
p34
(dp35
g19
S'simple'
p36
sg21
g22
sbasg8
S'Final_layer'
p37
sg10
(dp38
sg12
(lp39
sbasS'y_sets'
p40
(lp41
sS'X_sets'
p42
(lp43
sb.