(iensembling
Network
p0
(dp1
S'layers'
p2
(lp3
(iensembling
Layer
p4
(dp5
S'models'
p6
(lp7
sS'name'
p8
S'L0'
p9
sS'links'
p10
(dp11
sS'estimators'
p12
(lp13
sba(iensembling
Layer
p14
(dp15
g6
(lp16
(iensembling
Vote
p17
(dp18
S'vote_type'
p19
S'simple'
p20
sS'weights'
p21
(lp22
sba(iensembling
Vote
p23
(dp24
g19
S'rank'
p25
sg21
g22
sbag17
ag23
ag17
ag23
ag17
ag23
asg8
S'L1'
p26
sg10
(dp27
I0
(lp28
I0
aI1
aI2
aI3
asI1
g28
sI2
(lp29
I4
aI5
aI6
aI7
asI3
g29
sI4
(lp30
I8
aI9
aI10
aI11
asI5
g30
sI6
(lp31
I12
aI13
aI14
aI15
asI7
g31
ssg12
(lp32
sba(iensembling
Layer
p33
(dp34
g6
(lp35
(iensembling
Vote
p36
(dp37
g19
g25
sg21
g22
sba(iensembling
Vote
p38
(dp39
g19
g20
sg21
g22
sba(iensembling
Vote
p40
(dp41
g19
S'norm'
p42
sg21
g22
sbasg8
S'L2'
p43
sg10
(dp44
sg12
(lp45
sba(iensembling
Layer
p46
(dp47
g6
(lp48
(iensembling
Vote
p49
(dp50
g19
g20
sg21
g22
sbasg8
S'L3'
p51
sg10
(dp52
sg12
(lp53
sbasS'y_sets'
p54
(lp55
sS'X_sets'
p56
(lp57
sb.