(iensembling
Network
p0
(dp1
S'layers'
p2
(lp3
(iensembling
Layer
p4
(dp5
S'models'
p6
(lp7
sS'name'
p8
S'L0'
p9
sS'links'
p10
(dp11
sS'estimators'
p12
(lp13
sba(iensembling
Layer
p14
(dp15
g6
(lp16
(iensembling
Vote
p17
(dp18
S'vote_type'
p19
S'simple'
p20
sS'weights'
p21
(lp22
sba(iensembling
Vote
p23
(dp24
g19
S'rank'
p25
sg21
g22
sba(iensembling
Model
p26
(dp27
S'Cmax'
p28
I4
sS'class_type'
p29
S'lr'
p30
sS'Cmin'
p31
I-3
sba(iensembling
Vote
p32
(dp33
g19
S'norm'
p34
sg21
g22
sbag17
ag23
ag26
ag32
ag17
ag23
ag26
ag32
ag17
ag23
ag26
ag32
asg8
S'L1'
p35
sg10
(dp36
I0
(lp37
I0
aI1
aI2
aI3
asI1
g37
sI2
g37
sI3
g37
sI4
(lp38
I4
aI5
aI6
aI7
asI5
g38
sI6
g38
sI7
g38
sI8
(lp39
I8
aI9
aI10
aI11
asI9
g39
sI10
g39
sI11
g39
sI12
(lp40
I12
aI13
aI14
aI15
asI13
g40
sI14
g40
sI15
g40
ssg12
(lp41
sba(iensembling
Layer
p42
(dp43
g6
(lp44
(iensembling
Vote
p45
(dp46
g19
g25
sg21
g22
sba(iensembling
Vote
p47
(dp48
g19
g20
sg21
g22
sba(iensembling
Vote
p49
(dp50
g19
g34
sg21
g22
sba(iensembling
Model
p51
(dp52
g28
I4
sg29
g30
sg31
I-3
sbasg8
S'L2'
p53
sg10
(dp54
sg12
(lp55
sba(iensembling
Layer
p56
(dp57
g6
(lp58
(iensembling
Vote
p59
(dp60
g19
g20
sg21
g22
sbasg8
S'L3'
p61
sg10
(dp62
sg12
(lp63
sbasS'y_sets'
p64
(lp65
sS'X_sets'
p66
(lp67
sb.