(iensembling
Network
p0
(dp1
S'layers'
p2
(lp3
(iensembling
Layer
p4
(dp5
S'models'
p6
(lp7
sS'name'
p8
S'L0'
p9
sS'links'
p10
(dp11
sS'estimators'
p12
(lp13
sba(iensembling
Layer
p14
(dp15
g6
(lp16
(iensembling
Vote
p17
(dp18
S'vote_type'
p19
S'simple'
p20
sS'weights'
p21
(lp22
sbasg8
S'L1'
p23
sg10
(dp24
sg12
(lp25
sbasS'y_sets'
p26
(lp27
sS'X_sets'
p28
(lp29
sb.