(iensembling
Network
p0
(dp1
S'layers'
p2
(lp3
(iensembling
Layer
p4
(dp5
S'models'
p6
(lp7
sS'name'
p8
S'Models_layer'
p9
sS'links'
p10
(dp11
sS'estimators'
p12
(lp13
sba(iensembling
Layer
p14
(dp15
g6
(lp16
(iensembling
Vote
p17
(dp18
S'vote_type'
p19
S'simple'
p20
sS'weights'
p21
(lp22
sbag17
ag17
ag17
asg8
S'Hidden_layer1'
p23
sg10
(dp24
I0
(lp25
I0
aI4
aI8
aI12
aI16
asI1
(lp26
I1
aI5
aI9
aI13
aI17
asI2
(lp27
I2
aI6
aI10
aI14
aI18
asI3
(lp28
I3
aI7
aI11
aI15
aI19
assg12
(lp29
g17
ag17
ag17
ag17
asba(iensembling
Layer
p30
(dp31
g6
(lp32
(iensembling
Vote
p33
(dp34
g19
S'rank'
p35
sg21
g22
sbasg8
S'Final_layer'
p36
sg10
(dp37
sg12
(lp38
g33
asbasS'y_sets'
p39
(lp40
sS'X_sets'
p41
(lp42
sb.