(iensembling
Network
p0
(dp1
S'layers'
p2
(lp3
(iensembling
Layer
p4
(dp5
S'models'
p6
(lp7
sS'name'
p8
S'L0'
p9
sS'links'
p10
(dp11
sS'estimators'
p12
(lp13
sba(iensembling
Layer
p14
(dp15
g6
(lp16
(iensembling
Vote
p17
(dp18
S'vote_type'
p19
S'rank'
p20
sS'weights'
p21
(lp22
sba(iensembling
Vote
p23
(dp24
g19
S'simple'
p25
sg21
g22
sba(iensembling
Vote
p26
(dp27
g19
S'norm'
p28
sg21
g22
sbasg8
S'L1'
p29
sg10
(dp30
sg12
(lp31
sba(iensembling
Layer
p32
(dp33
g6
(lp34
(iensembling
Model
p35
(dp36
S'Cmax'
p37
I4
sS'class_type'
p38
S'lr'
p39
sS'Cmin'
p40
I-3
sbasg8
S'L2'
p41
sg10
(dp42
sg12
(lp43
sbasS'y_sets'
p44
(lp45
sS'X_sets'
p46
(lp47
sb.