(iensembling
Network
p0
(dp1
S'layers'
p2
(lp3
(iensembling
Layer
p4
(dp5
S'models'
p6
(lp7
sS'name'
p8
S'Models_layer'
p9
sS'links'
p10
(dp11
sS'estimators'
p12
(lp13
sba(iensembling
Layer
p14
(dp15
g6
(lp16
(iensembling
Vote
p17
(dp18
S'vote_type'
p19
S'simple'
p20
sba(iensembling
Vote
p21
(dp22
g19
S'rank'
p23
sba(iensembling
Vote
p24
(dp25
g19
S'norm'
p26
sbasg8
S'Hidden_layer2'
p27
sg10
(dp28
sg12
(lp29
g17
ag21
ag24
asba(iensembling
Layer
p30
(dp31
g6
(lp32
(iensembling
Vote
p33
(dp34
g19
g20
sbasg8
S'Final_layer'
p35
sg10
(dp36
sg12
(lp37
g33
asbasS'y_sets'
p38
(lp39
sS'X_sets'
p40
(lp41
sb.