(iensembling
Network
p0
(dp1
S'layers'
p2
(lp3
(iensembling
Layer
p4
(dp5
S'models'
p6
(lp7
sS'name'
p8
S'Models_layer'
p9
sS'links'
p10
(dp11
sS'estimators'
p12
(lp13
sba(iensembling
Layer
p14
(dp15
g6
(lp16
(iensembling
Vote
p17
(dp18
S'vote_type'
p19
S'simple'
p20
sba(iensembling
Vote
p21
(dp22
g19
S'norm'
p23
sba(iensembling
Vote
p24
(dp25
g19
S'rank'
p26
sbag17
ag21
ag24
ag17
ag21
ag24
ag17
ag21
ag24
asg8
S'Hidden_layer'
p27
sg10
(dp28
I0
(lp29
I0
aI1
aI2
asI1
g29
sI2
g29
sI3
(lp30
I3
aI4
aI5
asI4
g30
sI5
g30
sI6
(lp31
I6
aI7
aI8
asI7
g31
sI8
g31
sI9
(lp32
I9
aI10
aI11
asI10
g32
sI11
g32
ssg12
(lp33
g17
ag21
ag24
ag17
ag21
ag24
ag17
ag21
ag24
ag17
ag21
ag24
asba(iensembling
Layer
p34
(dp35
g6
(lp36
g17
ag21
ag24
ag17
ag21
ag24
ag17
ag21
ag24
ag17
ag21
ag24
asg8
g27
sg10
(dp37
sg12
(lp38
g17
ag21
ag24
ag17
ag21
ag24
ag17
ag21
ag24
ag17
ag21
ag24
asba(iensembling
Layer
p39
(dp40
g6
(lp41
g17
ag21
ag24
ag17
ag21
ag24
ag17
ag21
ag24
ag17
ag21
ag24
asg8
g27
sg10
(dp42
sg12
(lp43
g17
ag21
ag24
ag17
ag21
ag24
ag17
ag21
ag24
ag17
ag21
ag24
asba(iensembling
Layer
p44
(dp45
g6
(lp46
(iensembling
Vote
p47
(dp48
g19
g20
sbasg8
S'Final_layer'
p49
sg10
(dp50
sg12
(lp51
g47
asbasS'y_sets'
p52
(lp53
sS'X_sets'
p54
(lp55
sb.