(iensembling
Network
p0
(dp1
S'layers'
p2
(lp3
(iensembling
Layer
p4
(dp5
S'models'
p6
(lp7
sS'name'
p8
S'Models_layer'
p9
sS'links'
p10
(dp11
sS'estimators'
p12
(lp13
sba(iensembling
Layer
p14
(dp15
g6
(lp16
(iensembling
Vote
p17
(dp18
S'vote_type'
p19
S'rank'
p20
sbag17
ag17
ag17
asg8
S'Hidden_layer1'
p21
sg10
(dp22
I0
(lp23
I0
aI1
aI2
asI1
(lp24
I3
aI4
aI5
asI2
(lp25
I6
aI7
aI8
asI3
(lp26
I9
aI10
aI11
assg12
(lp27
g17
ag17
ag17
ag17
asba(iensembling
Layer
p28
(dp29
g6
(lp30
(iensembling
Vote
p31
(dp32
g19
S'simple'
p33
sbasg8
S'Final_layer'
p34
sg10
(dp35
sg12
(lp36
g31
asbasS'y_sets'
p37
(lp38
sS'X_sets'
p39
(lp40
sb.