(iensembling
Network
p0
(dp1
S'layers'
p2
(lp3
(iensembling
Layer
p4
(dp5
S'models'
p6
(lp7
sS'name'
p8
S'Models_layer'
p9
sS'links'
p10
(dp11
sS'estimators'
p12
(lp13
sba(iensembling
Layer
p14
(dp15
g6
(lp16
(iensembling
Vote
p17
(dp18
S'vote_type'
p19
S'rank'
p20
sba(iensembling
Vote
p21
(dp22
g19
S'norm'
p23
sbag17
ag21
ag17
ag21
ag17
ag21
asg8
S'Hidden_layer'
p24
sg10
(dp25
I0
(lp26
I0
aI1
aI2
asI1
g26
sI2
(lp27
I3
aI4
aI5
asI3
g27
sI4
(lp28
I6
aI7
aI8
asI5
g28
sI6
(lp29
I9
aI10
aI11
asI7
g29
ssg12
(lp30
g17
ag21
ag17
ag21
ag17
ag21
ag17
ag21
asba(iensembling
Layer
p31
(dp32
g6
(lp33
(iensembling
Vote
p34
(dp35
g19
S'simple'
p36
sbasg8
S'Final_layer'
p37
sg10
(dp38
sg12
(lp39
g34
asbasS'y_sets'
p40
(lp41
sS'X_sets'
p42
(lp43
sb.